target datalayout = "e-m:e-p270:32:32-p271:32:32-p272:64:64-i64:64-i128:128-f80:128-n8:16:32:64-S128"
target triple = "x86_64-pc-linux-gnu"

@.str.9 = private unnamed_addr constant [29 x i8] c"too many arguments to resume\00", align 1
@.str.10 = private unnamed_addr constant [27 x i8] c"too many results to resume\00", align 1

; Function Attrs: nounwind uwtable
define internal i32 @auxresume(ptr noundef %0, ptr noundef %1, i32 noundef %2) #0 {
  %4 = alloca i32, align 4
  %5 = alloca ptr, align 8
  %6 = alloca ptr, align 8
  %7 = alloca i32, align 4
  %8 = alloca i32, align 4
  %9 = alloca i32, align 4
  %10 = alloca i32, align 4
  store ptr %0, ptr %5, align 8, !tbaa !4
  store ptr %1, ptr %6, align 8, !tbaa !4
  store i32 %2, ptr %7, align 4, !tbaa !9
  call void @llvm.lifetime.start.p0(i64 4, ptr %8) #4
  call void @llvm.lifetime.start.p0(i64 4, ptr %9) #4
  %11 = load ptr, ptr %6, align 8, !tbaa !4
  %12 = load i32, ptr %7, align 4, !tbaa !9
  %13 = call i32 @lua_checkstack(ptr noundef %11, i32 noundef %12)
  %14 = icmp ne i32 %13, 0
  %15 = xor i1 %14, true
  %16 = zext i1 %15 to i32
  %17 = icmp ne i32 %16, 0
  %18 = zext i1 %17 to i32
  %19 = sext i32 %18 to i64
  %20 = call i64 @llvm.expect.i64(i64 %19, i64 0)
  %21 = icmp ne i64 %20, 0
  br i1 %21, label %22, label %25

22:                                               ; preds = %3
  %23 = load ptr, ptr %5, align 8, !tbaa !4
  %24 = call ptr @lua_pushstring(ptr noundef %23, ptr noundef @.str.9)
  store i32 -1, ptr %4, align 4
  store i32 1, ptr %10, align 4
  br label %74

25:                                               ; preds = %3
  %26 = load ptr, ptr %5, align 8, !tbaa !4
  %27 = load ptr, ptr %6, align 8, !tbaa !4
  %28 = load i32, ptr %7, align 4, !tbaa !9
  call void @lua_xmove(ptr noundef %26, ptr noundef %27, i32 noundef %28)
  %29 = load ptr, ptr %6, align 8, !tbaa !4
  %30 = load ptr, ptr %5, align 8, !tbaa !4
  %31 = load i32, ptr %7, align 4, !tbaa !9
  %32 = call i32 @lua_resume(ptr noundef %29, ptr noundef %30, i32 noundef %31, ptr noundef %9)
  store i32 %32, ptr %8, align 4, !tbaa !9
  %33 = load i32, ptr %8, align 4, !tbaa !9
  %34 = icmp eq i32 %33, 0
  br i1 %34, label %38, label %35

35:                                               ; preds = %25
  %36 = load i32, ptr %8, align 4, !tbaa !9
  %37 = icmp eq i32 %36, 1
  br label %38

38:                                               ; preds = %35, %25
  %39 = phi i1 [ true, %25 ], [ %37, %35 ]
  %40 = zext i1 %39 to i32
  %41 = icmp ne i32 %40, 0
  %42 = zext i1 %41 to i32
  %43 = sext i32 %42 to i64
  %44 = call i64 @llvm.expect.i64(i64 %43, i64 1)
  %45 = icmp ne i64 %44, 0
  br i1 %45, label %46, label %71

46:                                               ; preds = %38
  %47 = load ptr, ptr %5, align 8, !tbaa !4
  %48 = load i32, ptr %9, align 4, !tbaa !9
  %49 = add nsw i32 %48, 1
  %50 = call i32 @lua_checkstack(ptr noundef %47, i32 noundef %49)
  %51 = icmp ne i32 %50, 0
  %52 = xor i1 %51, true
  %53 = zext i1 %52 to i32
  %54 = icmp ne i32 %53, 0
  %55 = zext i1 %54 to i32
  %56 = sext i32 %55 to i64
  %57 = call i64 @llvm.expect.i64(i64 %56, i64 0)
  %58 = icmp ne i64 %57, 0
  br i1 %58, label %59, label %66

59:                                               ; preds = %46
  %60 = load ptr, ptr %6, align 8, !tbaa !4
  %61 = load i32, ptr %9, align 4, !tbaa !9
  %62 = sub nsw i32 0, %61
  %63 = sub nsw i32 %62, 1
  call void @lua_settop(ptr noundef %60, i32 noundef %63)
  %64 = load ptr, ptr %5, align 8, !tbaa !4
  %65 = call ptr @lua_pushstring(ptr noundef %64, ptr noundef @.str.10)
  store i32 -1, ptr %4, align 4
  store i32 1, ptr %10, align 4
  br label %74

66:                                               ; preds = %46
  %67 = load ptr, ptr %6, align 8, !tbaa !4
  %68 = load ptr, ptr %5, align 8, !tbaa !4
  %69 = load i32, ptr %9, align 4, !tbaa !9
  call void @lua_xmove(ptr noundef %67, ptr noundef %68, i32 noundef %69)
  %70 = load i32, ptr %9, align 4, !tbaa !9
  store i32 %70, ptr %4, align 4
  store i32 1, ptr %10, align 4
  br label %74

71:                                               ; preds = %38
  %72 = load ptr, ptr %6, align 8, !tbaa !4
  %73 = load ptr, ptr %5, align 8, !tbaa !4
  call void @lua_xmove(ptr noundef %72, ptr noundef %73, i32 noundef 1)
  store i32 -1, ptr %4, align 4
  store i32 1, ptr %10, align 4
  br label %74

74:                                               ; preds = %71, %66, %59, %22
  call void @llvm.lifetime.end.p0(i64 4, ptr %9) #4
  call void @llvm.lifetime.end.p0(i64 4, ptr %8) #4
  %75 = load i32, ptr %4, align 4
  ret i32 %75
}