; Function Attrs: nounwind uwtable
define internal fastcc i32 @auxresume(ptr noundef %0, ptr noundef %1, i32 noundef %2) unnamed_addr #0 {
  %4 = alloca i32, align 4
  call void @llvm.lifetime.start.p0(i64 4, ptr nonnull %4) #3
  %5 = tail call i32 @lua_checkstack(ptr noundef %1, i32 noundef %2) #3
  %.not = icmp eq i32 %5, 0
  br i1 %.not, label %6, label %8, !prof !4

6:                                                ; preds = %3
  %7 = tail call ptr @lua_pushstring(ptr noundef %0, ptr noundef nonnull @.str.9) #3
  br label %22

8:                                                ; preds = %3
  tail call void @lua_xmove(ptr noundef %0, ptr noundef %1, i32 noundef %2) #3
  %9 = call i32 @lua_resume(ptr noundef %1, ptr noundef %0, i32 noundef %2, ptr noundef nonnull %4) #3
  %10 = icmp ult i32 %9, 2
  br i1 %10, label %11, label %21, !prof !10

11:                                               ; preds = %8
  %12 = load i32, ptr %4, align 4, !tbaa !11
  %13 = add nsw i32 %12, 1
  %14 = call i32 @lua_checkstack(ptr noundef %0, i32 noundef %13) #3
  %.not18 = icmp eq i32 %14, 0
  %15 = load i32, ptr %4, align 4, !tbaa !11
  br i1 %.not18, label %16, label %19, !prof !4

16:                                               ; preds = %11
  %17 = xor i32 %15, -1
  call void @lua_settop(ptr noundef %1, i32 noundef %17) #3
  %18 = call ptr @lua_pushstring(ptr noundef %0, ptr noundef nonnull @.str.10) #3
  br label %22

19:                                               ; preds = %11
  call void @lua_xmove(ptr noundef %1, ptr noundef %0, i32 noundef %15) #3
  %20 = load i32, ptr %4, align 4, !tbaa !11
  br label %22

21:                                               ; preds = %8
  call void @lua_xmove(ptr noundef %1, ptr noundef %0, i32 noundef 1) #3
  br label %22

22:                                               ; preds = %21, %19, %16, %6
  %.0 = phi i32 [ -1, %6 ], [ -1, %16 ], [ %20, %19 ], [ -1, %21 ]
  call void @llvm.lifetime.end.p0(i64 4, ptr nonnull %4) #3
  ret i32 %.0
}